; Function Attrs: nofree nounwind uwtable
define internal void @__cxx_global_var_init.4() #5 section ".text.startup" comdat($_ZN10open_spiel5chess9kPassMoveE) personality ptr @__gxx_personality_v0 {
  %1 = load atomic i8, ptr @_ZGVN10open_spiel5chess9kPassMoveE acquire, align 8
  %2 = icmp eq i8 %1, 0
  br i1 %2, label %3, label %6

3:                                                ; preds = %0
  %4 = tail call i32 @__cxa_guard_acquire(ptr nonnull @_ZGVN10open_spiel5chess9kPassMoveE) #30
  %.not = icmp eq i32 %4, 0
  br i1 %.not, label %6, label %5

5:                                                ; preds = %3
  store i16 -1, ptr @_ZN10open_spiel5chess9kPassMoveE, align 4
  store i16 -1, ptr getelementptr inbounds nuw (i8, ptr @_ZN10open_spiel5chess9kPassMoveE, i64 2), align 2
  store i16 2, ptr getelementptr inbounds nuw (i8, ptr @_ZN10open_spiel5chess9kPassMoveE, i64 4), align 4
  store i8 0, ptr getelementptr inbounds nuw (i8, ptr @_ZN10open_spiel5chess9kPassMoveE, i64 6), align 2
  store i32 2, ptr getelementptr inbounds nuw (i8, ptr @_ZN10open_spiel5chess9kPassMoveE, i64 8), align 4
  tail call void @__cxa_guard_release(ptr nonnull @_ZGVN10open_spiel5chess9kPassMoveE) #30
  br label %6

6:                                                ; preds = %5, %3, %0
  ret void
}